target datalayout = "e-m:e-p270:32:32-p271:32:32-p272:64:64-i64:64-i128:128-f80:128-n8:16:32:64-S128"
target triple = "x86_64-pc-linux-gnu"

%struct._packet_info = type { ptr, ptr, i32, i32, %struct.nstime_t, %struct.nstime_t, %struct.nstime_t, i8, ptr, ptr, ptr, ptr, %struct._address, %struct._address, %struct._address, %struct._address, %struct._address, %struct._address, i32, ptr, i8, [3 x i8], %struct.anon.7, i32, i32, i32, i32, ptr, i8, ptr, ptr, i16, i16, i32, i32, i16, i32, i32, ptr, ptr, ptr, i8, i8, i16, i16, i16, i32, i16, i16, ptr, ptr, ptr, ptr, ptr, i32, i32 }
%struct.nstime_t = type { i64, i32 }
%struct._address = type { i32, i32, ptr, ptr }
%struct.anon.7 = type { i8, [3 x i8] }
%struct.xnap_private_data = type { ptr, i32, i32, i32, i32 }
%struct.xnap_conv_info = type { %struct._address, i32, i32, %struct._address, i32, i32 }

@proto_xnap = internal global i32 0, align 4

; Function Attrs: inlinehint nounwind null_pointer_is_valid sspstrong uwtable
define internal zeroext i1 @addresses_equal(ptr noundef %0, ptr noundef %1) #6 {
  %3 = alloca i1, align 1
  %4 = alloca ptr, align 8
  %5 = alloca ptr, align 8
  store ptr %0, ptr %4, align 8
  store ptr %1, ptr %5, align 8
  %6 = load ptr, ptr %4, align 8
  %7 = getelementptr inbounds nuw %struct._address, ptr %6, i32 0, i32 0
  %8 = load i32, ptr %7, align 8
  %9 = load ptr, ptr %5, align 8
  %10 = getelementptr inbounds nuw %struct._address, ptr %9, i32 0, i32 0
  %11 = load i32, ptr %10, align 8
  %12 = icmp eq i32 %8, %11
  br i1 %12, label %13, label %40

13:                                               ; preds = %2
  %14 = load ptr, ptr %4, align 8
  %15 = getelementptr inbounds nuw %struct._address, ptr %14, i32 0, i32 1
  %16 = load i32, ptr %15, align 4
  %17 = load ptr, ptr %5, align 8
  %18 = getelementptr inbounds nuw %struct._address, ptr %17, i32 0, i32 1
  %19 = load i32, ptr %18, align 4
  %20 = icmp eq i32 %16, %19
  br i1 %20, label %21, label %40

21:                                               ; preds = %13
  %22 = load ptr, ptr %4, align 8
  %23 = getelementptr inbounds nuw %struct._address, ptr %22, i32 0, i32 1
  %24 = load i32, ptr %23, align 4
  %25 = icmp eq i32 %24, 0
  br i1 %25, label %39, label %26

26:                                               ; preds = %21
  %27 = load ptr, ptr %4, align 8
  %28 = getelementptr inbounds nuw %struct._address, ptr %27, i32 0, i32 2
  %29 = load ptr, ptr %28, align 8
  %30 = load ptr, ptr %5, align 8
  %31 = getelementptr inbounds nuw %struct._address, ptr %30, i32 0, i32 2
  %32 = load ptr, ptr %31, align 8
  %33 = load ptr, ptr %4, align 8
  %34 = getelementptr inbounds nuw %struct._address, ptr %33, i32 0, i32 1
  %35 = load i32, ptr %34, align 4
  %36 = sext i32 %35 to i64
  %37 = call i32 @memcmp(ptr noundef %29, ptr noundef %32, i64 noundef %36) #12
  %38 = icmp eq i32 %37, 0
  br i1 %38, label %39, label %40

39:                                               ; preds = %26, %21
  store i1 true, ptr %3, align 1
  br label %41

40:                                               ; preds = %26, %13, %2
  store i1 false, ptr %3, align 1
  br label %41

41:                                               ; preds = %40, %39
  %42 = load i1, ptr %3, align 1
  ret i1 %42
}

; Function Attrs: null_pointer_is_valid sspstrong uwtable
define internal ptr @xnap_get_private_data(ptr noundef %0) #0 {
  %2 = alloca ptr, align 8
  %3 = alloca ptr, align 8
  store ptr %0, ptr %2, align 8
  call void @llvm.lifetime.start.p0(i64 8, ptr %3) #9
  %4 = load ptr, ptr %2, align 8
  %5 = getelementptr inbounds nuw %struct._packet_info, ptr %4, i32 0, i32 51
  %6 = load ptr, ptr %5, align 8
  %7 = load ptr, ptr %2, align 8
  %8 = load i32, ptr @proto_xnap, align 4
  %9 = call ptr @p_get_proto_data(ptr noundef %6, ptr noundef %7, i32 noundef %8, i32 noundef 0)
  store ptr %9, ptr %3, align 8
  %10 = load ptr, ptr %3, align 8
  %11 = icmp ne ptr %10, null
  br i1 %11, label %23, label %12

12:                                               ; preds = %1
  %13 = load ptr, ptr %2, align 8
  %14 = getelementptr inbounds nuw %struct._packet_info, ptr %13, i32 0, i32 51
  %15 = load ptr, ptr %14, align 8
  %16 = call noalias ptr @wmem_alloc0(ptr noundef %15, i64 noundef 24) #10
  store ptr %16, ptr %3, align 8
  %17 = load ptr, ptr %2, align 8
  %18 = getelementptr inbounds nuw %struct._packet_info, ptr %17, i32 0, i32 51
  %19 = load ptr, ptr %18, align 8
  %20 = load ptr, ptr %2, align 8
  %21 = load i32, ptr @proto_xnap, align 4
  %22 = load ptr, ptr %3, align 8
  call void @p_add_proto_data(ptr noundef %19, ptr noundef %20, i32 noundef %21, i32 noundef 0, ptr noundef %22)
  br label %23

23:                                               ; preds = %12, %1
  %24 = load ptr, ptr %3, align 8
  call void @llvm.lifetime.end.p0(i64 8, ptr %3) #9
  ret ptr %24
}

; Function Attrs: null_pointer_is_valid sspstrong uwtable
define internal i32 @xnap_get_ranmode_id(ptr noundef %0, i32 noundef %1, ptr noundef %2) #0 {
  %4 = alloca ptr, align 8
  %5 = alloca i32, align 4
  %6 = alloca ptr, align 8
  %7 = alloca ptr, align 8
  %8 = alloca i32, align 4
  store ptr %0, ptr %4, align 8
  store i32 %1, ptr %5, align 4
  store ptr %2, ptr %6, align 8
  call void @llvm.lifetime.start.p0(i64 8, ptr %7) #9
  %9 = load ptr, ptr %6, align 8
  %10 = call ptr @xnap_get_private_data(ptr noundef %9)
  store ptr %10, ptr %7, align 8
  call void @llvm.lifetime.start.p0(i64 4, ptr %8) #9
  store i32 -1, ptr %8, align 4
  %11 = load ptr, ptr %7, align 8
  %12 = getelementptr inbounds nuw %struct.xnap_private_data, ptr %11, i32 0, i32 0
  %13 = load ptr, ptr %12, align 8
  %14 = icmp ne ptr %13, null
  br i1 %14, label %15, label %59

15:                                               ; preds = %3
  %16 = load ptr, ptr %4, align 8
  %17 = load ptr, ptr %7, align 8
  %18 = getelementptr inbounds nuw %struct.xnap_private_data, ptr %17, i32 0, i32 0
  %19 = load ptr, ptr %18, align 8
  %20 = getelementptr inbounds nuw %struct.xnap_conv_info, ptr %19, i32 0, i32 0
  %21 = call zeroext i1 @addresses_equal(ptr noundef %16, ptr noundef %20)
  br i1 %21, label %22, label %36

22:                                               ; preds = %15
  %23 = load i32, ptr %5, align 4
  %24 = load ptr, ptr %7, align 8
  %25 = getelementptr inbounds nuw %struct.xnap_private_data, ptr %24, i32 0, i32 0
  %26 = load ptr, ptr %25, align 8
  %27 = getelementptr inbounds nuw %struct.xnap_conv_info, ptr %26, i32 0, i32 1
  %28 = load i32, ptr %27, align 8
  %29 = icmp eq i32 %23, %28
  br i1 %29, label %30, label %36

30:                                               ; preds = %22
  %31 = load ptr, ptr %7, align 8
  %32 = getelementptr inbounds nuw %struct.xnap_private_data, ptr %31, i32 0, i32 0
  %33 = load ptr, ptr %32, align 8
  %34 = getelementptr inbounds nuw %struct.xnap_conv_info, ptr %33, i32 0, i32 2
  %35 = load i32, ptr %34, align 4
  store i32 %35, ptr %8, align 4
  br label %58

36:                                               ; preds = %22, %15
  %37 = load ptr, ptr %4, align 8
  %38 = load ptr, ptr %7, align 8
  %39 = getelementptr inbounds nuw %struct.xnap_private_data, ptr %38, i32 0, i32 0
  %40 = load ptr, ptr %39, align 8
  %41 = getelementptr inbounds nuw %struct.xnap_conv_info, ptr %40, i32 0, i32 3
  %42 = call zeroext i1 @addresses_equal(ptr noundef %37, ptr noundef %41)
  br i1 %42, label %43, label %57

43:                                               ; preds = %36
  %44 = load i32, ptr %5, align 4
  %45 = load ptr, ptr %7, align 8
  %46 = getelementptr inbounds nuw %struct.xnap_private_data, ptr %45, i32 0, i32 0
  %47 = load ptr, ptr %46, align 8
  %48 = getelementptr inbounds nuw %struct.xnap_conv_info, ptr %47, i32 0, i32 4
  %49 = load i32, ptr %48, align 8
  %50 = icmp eq i32 %44, %49
  br i1 %50, label %51, label %57

51:                                               ; preds = %43
  %52 = load ptr, ptr %7, align 8
  %53 = getelementptr inbounds nuw %struct.xnap_private_data, ptr %52, i32 0, i32 0
  %54 = load ptr, ptr %53, align 8
  %55 = getelementptr inbounds nuw %struct.xnap_conv_info, ptr %54, i32 0, i32 5
  %56 = load i32, ptr %55, align 4
  store i32 %56, ptr %8, align 4
  br label %57

57:                                               ; preds = %51, %43, %36
  br label %58

58:                                               ; preds = %57, %30
  br label %59

59:                                               ; preds = %58, %3
  %60 = load i32, ptr %8, align 4
  call void @llvm.lifetime.end.p0(i64 4, ptr %8) #9
  call void @llvm.lifetime.end.p0(i64 8, ptr %7) #9
  ret i32 %60
}