; Function Attrs: null_pointer_is_valid sspstrong uwtable
define internal fastcc i32 @xnap_get_ranmode_id(ptr noundef readonly captures(none) %0, i32 noundef %1, ptr noundef %2) unnamed_addr #0 {
  %4 = getelementptr inbounds nuw i8, ptr %2, i64 408
  %5 = load ptr, ptr %4, align 8
  %6 = load i32, ptr @proto_xnap, align 4
  %7 = tail call ptr @p_get_proto_data(ptr noundef %5, ptr noundef %2, i32 noundef %6, i32 noundef 0)
  %.not.i = icmp eq ptr %7, null
  br i1 %.not.i, label %8, label %xnap_get_private_data.exit

8:                                                ; preds = %3
  %9 = load ptr, ptr %4, align 8
  %10 = tail call noalias dereferenceable_or_null(24) ptr @wmem_alloc0(ptr noundef %9, i64 noundef 24) #10
  %11 = load ptr, ptr %4, align 8
  %12 = load i32, ptr @proto_xnap, align 4
  tail call void @p_add_proto_data(ptr noundef %11, ptr noundef %2, i32 noundef %12, i32 noundef 0, ptr noundef %10)
  br label %xnap_get_private_data.exit

xnap_get_private_data.exit:                       ; preds = %3, %8
  %.0.i = phi ptr [ %7, %3 ], [ %10, %8 ]
  %13 = load ptr, ptr %.0.i, align 8
  %.not = icmp eq ptr %13, null
  br i1 %.not, label %addresses_equal.exit16, label %14

14:                                               ; preds = %xnap_get_private_data.exit
  %15 = load i32, ptr %0, align 8
  %16 = load i32, ptr %13, align 8
  %17 = icmp eq i32 %15, %16
  br i1 %17, label %18, label %addresses_equal.exit

18:                                               ; preds = %14
  %19 = getelementptr inbounds nuw i8, ptr %0, i64 4
  %20 = load i32, ptr %19, align 4
  %21 = getelementptr inbounds nuw i8, ptr %13, i64 4
  %22 = load i32, ptr %21, align 4
  %23 = icmp eq i32 %20, %22
  br i1 %23, label %24, label %addresses_equal.exit

24:                                               ; preds = %18
  %25 = icmp eq i32 %20, 0
  br i1 %25, label %33, label %26

26:                                               ; preds = %24
  %27 = getelementptr inbounds nuw i8, ptr %0, i64 8
  %28 = load ptr, ptr %27, align 8
  %29 = getelementptr inbounds nuw i8, ptr %13, i64 8
  %30 = load ptr, ptr %29, align 8
  %31 = sext i32 %20 to i64
  %bcmp.i = tail call i32 @bcmp(ptr %28, ptr %30, i64 %31)
  %32 = icmp eq i32 %bcmp.i, 0
  br i1 %32, label %33, label %addresses_equal.exit

33:                                               ; preds = %26, %24
  %34 = getelementptr inbounds nuw i8, ptr %13, i64 24
  %35 = load i32, ptr %34, align 8
  %36 = icmp eq i32 %1, %35
  br i1 %36, label %addresses_equal.exit16.sink.split, label %addresses_equal.exit

addresses_equal.exit:                             ; preds = %26, %18, %14, %33
  %37 = getelementptr inbounds nuw i8, ptr %13, i64 32
  %38 = load i32, ptr %37, align 8
  %39 = icmp eq i32 %15, %38
  br i1 %39, label %40, label %addresses_equal.exit16

40:                                               ; preds = %addresses_equal.exit
  %41 = getelementptr inbounds nuw i8, ptr %0, i64 4
  %42 = load i32, ptr %41, align 4
  %43 = getelementptr inbounds nuw i8, ptr %13, i64 36
  %44 = load i32, ptr %43, align 4
  %45 = icmp eq i32 %42, %44
  br i1 %45, label %46, label %addresses_equal.exit16

46:                                               ; preds = %40
  %47 = icmp eq i32 %42, 0
  br i1 %47, label %55, label %48

48:                                               ; preds = %46
  %49 = getelementptr inbounds nuw i8, ptr %0, i64 8
  %50 = load ptr, ptr %49, align 8
  %51 = getelementptr inbounds nuw i8, ptr %13, i64 40
  %52 = load ptr, ptr %51, align 8
  %53 = sext i32 %42 to i64
  %bcmp.i15 = tail call i32 @bcmp(ptr %50, ptr %52, i64 %53)
  %54 = icmp eq i32 %bcmp.i15, 0
  br i1 %54, label %55, label %addresses_equal.exit16

55:                                               ; preds = %48, %46
  %56 = getelementptr inbounds nuw i8, ptr %13, i64 56
  %57 = load i32, ptr %56, align 8
  %58 = icmp eq i32 %1, %57
  br i1 %58, label %addresses_equal.exit16.sink.split, label %addresses_equal.exit16

addresses_equal.exit16.sink.split:                ; preds = %55, %33
  %.sink19 = phi i64 [ 28, %33 ], [ 60, %55 ]
  %59 = getelementptr inbounds nuw i8, ptr %13, i64 %.sink19
  %60 = load i32, ptr %59, align 4
  br label %addresses_equal.exit16

addresses_equal.exit16:                           ; preds = %addresses_equal.exit16.sink.split, %48, %40, %addresses_equal.exit, %55, %xnap_get_private_data.exit
  %.0 = phi i32 [ -1, %55 ], [ -1, %xnap_get_private_data.exit ], [ -1, %addresses_equal.exit ], [ -1, %40 ], [ -1, %48 ], [ %60, %addresses_equal.exit16.sink.split ]
  ret i32 %.0
}